; Function Attrs: nounwind uwtable
define range(i32 -1, 1) i32 @H5T_reclaim_cb(ptr noundef %0, ptr noundef %1, i32 %2, ptr readnone captures(none) %3, ptr noundef %4) #0 {
  %6 = load i8, ptr @H5T_init_g, align 1, !tbaa !3, !range !7, !noundef !8
  %7 = trunc nuw i8 %6 to i1
  %8 = load i8, ptr @H5_libterm_g, align 1, !range !7
  %9 = trunc nuw i8 %8 to i1
  %10 = xor i1 %9, true
  %11 = select i1 %7, i1 true, i1 %10
  br i1 %11, label %12, label %32, !prof !9

12:                                               ; preds = %5
  %13 = getelementptr inbounds nuw i8, ptr %1, i64 40
  %14 = load ptr, ptr %13, align 8, !tbaa !16
  %15 = getelementptr inbounds nuw i8, ptr %14, i64 12
  %16 = load i32, ptr %15, align 4, !tbaa !26
  %17 = icmp eq i32 %16, 7
  br i1 %17, label %18, label %25

18:                                               ; preds = %12
  %19 = tail call i32 @H5T__ref_reclaim(ptr noundef %0, ptr noundef nonnull %1) #5
  %20 = icmp slt i32 %19, 0
  br i1 %20, label %21, label %32

21:                                               ; preds = %18
  %22 = load i64, ptr @H5E_DATATYPE_g, align 8, !tbaa !10
  %23 = load i64, ptr @H5E_CANTFREE_g, align 8, !tbaa !10
  %24 = tail call i32 (ptr, ptr, i32, i64, i64, ptr, ...) @H5E_printf_stack(ptr noundef nonnull @.str, ptr noundef nonnull @__func__.H5T_reclaim_cb, i32 noundef 130, i64 noundef %22, i64 noundef %23, ptr noundef nonnull @.str.2) #5
  br label %32

25:                                               ; preds = %12
  %26 = tail call i32 @H5T__vlen_reclaim(ptr noundef %0, ptr noundef nonnull %1, ptr noundef %4) #5
  %27 = icmp slt i32 %26, 0
  br i1 %27, label %28, label %32

28:                                               ; preds = %25
  %29 = load i64, ptr @H5E_DATATYPE_g, align 8, !tbaa !10
  %30 = load i64, ptr @H5E_CANTFREE_g, align 8, !tbaa !10
  %31 = tail call i32 (ptr, ptr, i32, i64, i64, ptr, ...) @H5E_printf_stack(ptr noundef nonnull @.str, ptr noundef nonnull @__func__.H5T_reclaim_cb, i32 noundef 137, i64 noundef %29, i64 noundef %30, ptr noundef nonnull @.str.3) #5
  br label %32

32:                                               ; preds = %21, %28, %25, %18, %5
  %.0 = phi i32 [ -1, %21 ], [ 0, %18 ], [ -1, %28 ], [ 0, %25 ], [ 0, %5 ]
  ret i32 %.0
}